	.file	"cimplefetch.c"
	.text
.Ltext0:
	.globl	user_info
	.bss
	.align 32
	.type	user_info, @object
	.size	user_info, 1056
user_info:
	.zero	1056
	.globl	uname_info
	.align 32
	.type	uname_info, @object
	.size	uname_info, 390
uname_info:
	.zero	390
	.globl	system_info
	.align 32
	.type	system_info, @object
	.size	system_info, 112
system_info:
	.zero	112
	.globl	argp_program_version
	.section	.rodata
	.align 8
.LC0:
	.string	"Cimplefetch 0.4 by Avery\nusing libcimply 0.5"
	.section	.data.rel.local,"aw"
	.align 8
	.type	argp_program_version, @object
	.size	argp_program_version, 8
argp_program_version:
	.quad	.LC0
	.section	.rodata
.LC1:
	.string	"Uptime:  %d H, %d M\n"
	.text
	.globl	print_uptime
	.type	print_uptime, @function
print_uptime:
.LFB6:
	.file 1 "cimplefetch.c"
	.loc 1 28 1
	.cfi_startproc
	pushq	%rbp
	.cfi_def_cfa_offset 16
	.cfi_offset 6, -16
	movq	%rsp, %rbp
	.cfi_def_cfa_register 6
	subq	$32, %rsp
	movl	%edi, -20(%rbp)
	.loc 1 31 9
	movl	-20(%rbp), %eax
	movslq	%eax, %rdx
	imulq	$-1851608123, %rdx, %rdx
	shrq	$32, %rdx
	addl	%eax, %edx
	sarl	$11, %edx
	sarl	$31, %eax
	movl	%eax, %ecx
	movl	%edx, %eax
	subl	%ecx, %eax
	movl	%eax, -8(%rbp)
	.loc 1 32 30
	movl	-8(%rbp), %eax
	imull	$-3600, %eax, %edx
	.loc 1 32 22
	movl	-20(%rbp), %eax
	addl	%edx, %eax
	.loc 1 32 10
	movslq	%eax, %rdx
	imulq	$-2004318071, %rdx, %rdx
	shrq	$32, %rdx
	addl	%eax, %edx
	sarl	$5, %edx
	sarl	$31, %eax
	movl	%eax, %ecx
	movl	%edx, %eax
	subl	%ecx, %eax
	movl	%eax, -4(%rbp)
	.loc 1 34 9
	movl	-4(%rbp), %edx
	movl	-8(%rbp), %eax
	movl	%eax, %esi
	leaq	.LC1(%rip), %rdi
	movl	$0, %eax
	call	printf@PLT
	.loc 1 35 1
	leave
	.cfi_def_cfa 7, 8
	ret
	.cfi_endproc
.LFE6:
	.size	print_uptime, .-print_uptime
	.section	.rodata
	.align 8
.LC2:
	.string	"Uptime:  %d hour(s), %d minutes, %d seconds (%d total seconds)\n"
	.text
	.globl	print_full_uptime
	.type	print_full_uptime, @function
print_full_uptime:
.LFB7:
	.loc 1 37 37
	.cfi_startproc
	pushq	%rbp
	.cfi_def_cfa_offset 16
	.cfi_offset 6, -16
	movq	%rsp, %rbp
	.cfi_def_cfa_register 6
	subq	$32, %rsp
	movl	%edi, -20(%rbp)
	.loc 1 40 9
	movl	-20(%rbp), %eax
	movslq	%eax, %rdx
	imulq	$-1851608123, %rdx, %rdx
	shrq	$32, %rdx
	addl	%eax, %edx
	sarl	$11, %edx
	sarl	$31, %eax
	movl	%eax, %ecx
	movl	%edx, %eax
	subl	%ecx, %eax
	movl	%eax, -12(%rbp)
	.loc 1 41 30
	movl	-12(%rbp), %eax
	imull	$-3600, %eax, %edx
	.loc 1 41 22
	movl	-20(%rbp), %eax
	addl	%edx, %eax
	.loc 1 41 10
	movslq	%eax, %rdx
	imulq	$-2004318071, %rdx, %rdx
	shrq	$32, %rdx
	addl	%eax, %edx
	sarl	$5, %edx
	sarl	$31, %eax
	movl	%eax, %ecx
	movl	%edx, %eax
	subl	%ecx, %eax
	movl	%eax, -8(%rbp)
	.loc 1 42 26
	movl	-12(%rbp), %eax
	imull	$-3600, %eax, %edx
	.loc 1 42 18
	movl	-20(%rbp), %eax
	leal	(%rdx,%rax), %ecx
	.loc 1 42 47
	movl	-8(%rbp), %edx
	movl	%edx, %eax
	sall	$4, %edx
	subl	%edx, %eax
	sall	$2, %eax
	.loc 1 42 6
	addl	%ecx, %eax
	movl	%eax, -4(%rbp)
	.loc 1 44 9
	movl	-20(%rbp), %esi
	movl	-4(%rbp), %ecx
	movl	-8(%rbp), %edx
	movl	-12(%rbp), %eax
	movl	%esi, %r8d
	movl	%eax, %esi
	leaq	.LC2(%rip), %rdi
	movl	$0, %eax
	call	printf@PLT
	.loc 1 46 1
	leave
	.cfi_def_cfa 7, 8
	ret
	.cfi_endproc
.LFE7:
	.size	print_full_uptime, .-print_full_uptime
	.section	.rodata
.LC3:
	.string	"Kernel:  %s\n"
	.text
	.globl	print_kernel
	.type	print_kernel, @function
print_kernel:
.LFB8:
	.loc 1 49 1
	.cfi_startproc
	pushq	%rbp
	.cfi_def_cfa_offset 16
	.cfi_offset 6, -16
	movq	%rsp, %rbp
	.cfi_def_cfa_register 6
	.loc 1 50 9
	leaq	130+uname_info(%rip), %rsi
	leaq	.LC3(%rip), %rdi
	movl	$0, %eax
	call	printf@PLT
	.loc 1 51 1
	popq	%rbp
	.cfi_def_cfa 7, 8
	ret
	.cfi_endproc
.LFE8:
	.size	print_kernel, .-print_kernel
	.section	.rodata
.LC4:
	.string	"OS:      %s\n"
	.text
	.globl	print_os
	.type	print_os, @function
print_os:
.LFB9:
	.loc 1 54 1
	.cfi_startproc
	pushq	%rbp
	.cfi_def_cfa_offset 16
	.cfi_offset 6, -16
	movq	%rsp, %rbp
	.cfi_def_cfa_register 6
	.loc 1 55 9
	leaq	uname_info(%rip), %rsi
	leaq	.LC4(%rip), %rdi
	movl	$0, %eax
	call	printf@PLT
	.loc 1 56 1
	popq	%rbp
	.cfi_def_cfa 7, 8
	ret
	.cfi_endproc
.LFE9:
	.size	print_os, .-print_os
	.section	.rodata
.LC5:
	.string	"Arch:    %s\n"
	.text
	.globl	print_arch
	.type	print_arch, @function
print_arch:
.LFB10:
	.loc 1 59 1
	.cfi_startproc
	pushq	%rbp
	.cfi_def_cfa_offset 16
	.cfi_offset 6, -16
	movq	%rsp, %rbp
	.cfi_def_cfa_register 6
	.loc 1 60 9
	leaq	260+uname_info(%rip), %rsi
	leaq	.LC5(%rip), %rdi
	movl	$0, %eax
	call	printf@PLT
	.loc 1 61 1
	popq	%rbp
	.cfi_def_cfa 7, 8
	ret
	.cfi_endproc
.LFE10:
	.size	print_arch, .-print_arch
	.section	.rodata
.LC6:
	.string	"         %s@%s\n"
	.text
	.globl	print_userinfo
	.type	print_userinfo, @function
print_userinfo:
.LFB11:
	.loc 1 67 1
	.cfi_startproc
	pushq	%rbp
	.cfi_def_cfa_offset 16
	.cfi_offset 6, -16
	movq	%rsp, %rbp
	.cfi_def_cfa_register 6
	.loc 1 68 9
	movq	user_info(%rip), %rax
	leaq	24+user_info(%rip), %rdx
	movq	%rax, %rsi
	leaq	.LC6(%rip), %rdi
	movl	$0, %eax
	call	printf@PLT
	.loc 1 69 1
	popq	%rbp
	.cfi_def_cfa 7, 8
	ret
	.cfi_endproc
.LFE11:
	.size	print_userinfo, .-print_userinfo
	.section	.rodata
.LC7:
	.string	"User:    %s\n"
	.text
	.globl	print_user
	.type	print_user, @function
print_user:
.LFB12:
	.loc 1 72 1
	.cfi_startproc
	pushq	%rbp
	.cfi_def_cfa_offset 16
	.cfi_offset 6, -16
	movq	%rsp, %rbp
	.cfi_def_cfa_register 6
	.loc 1 73 15
	movq	user_info(%rip), %rax
	.loc 1 73 5
	testq	%rax, %rax
	jne	.L14
	.loc 1 74 10
	movl	$-1, %eax
	jmp	.L15
.L14:
	.loc 1 75 9
	movq	user_info(%rip), %rax
	movq	%rax, %rsi
	leaq	.LC7(%rip), %rdi
	movl	$0, %eax
	call	printf@PLT
.L15:
	.loc 1 76 1
	popq	%rbp
	.cfi_def_cfa 7, 8
	ret
	.cfi_endproc
.LFE12:
	.size	print_user, .-print_user
	.section	.rodata
.LC8:
	.string	"SHELL"
.LC9:
	.string	"Shell:   %s\n"
	.text
	.globl	print_shell
	.type	print_shell, @function
print_shell:
.LFB13:
	.loc 1 79 1
	.cfi_startproc
	pushq	%rbp
	.cfi_def_cfa_offset 16
	.cfi_offset 6, -16
	movq	%rsp, %rbp
	.cfi_def_cfa_register 6
	subq	$16, %rsp
	.loc 1 80 16
	leaq	.LC8(%rip), %rdi
	call	getenv@PLT
	movq	%rax, -8(%rbp)
	.loc 1 81 5
	cmpq	$0, -8(%rbp)
	jne	.L17
	.loc 1 82 10
	movl	$-1, %eax
	jmp	.L18
.L17:
	.loc 1 83 9
	movq	-8(%rbp), %rax
	movq	%rax, %rsi
	leaq	.LC9(%rip), %rdi
	movl	$0, %eax
	call	printf@PLT
.L18:
	.loc 1 84 1
	leave
	.cfi_def_cfa 7, 8
	ret
	.cfi_endproc
.LFE13:
	.size	print_shell, .-print_shell
	.section	.rodata
.LC10:
	.string	"HOME"
.LC11:
	.string	"Home:    %s\n"
	.text
	.globl	print_home
	.type	print_home, @function
print_home:
.LFB14:
	.loc 1 87 1
	.cfi_startproc
	pushq	%rbp
	.cfi_def_cfa_offset 16
	.cfi_offset 6, -16
	movq	%rsp, %rbp
	.cfi_def_cfa_register 6
	subq	$16, %rsp
	.loc 1 88 15
	leaq	.LC10(%rip), %rdi
	call	getenv@PLT
	movq	%rax, -8(%rbp)
	.loc 1 89 5
	cmpq	$0, -8(%rbp)
	jne	.L20
	.loc 1 90 10
	movl	$-1, %eax
	jmp	.L21
.L20:
	.loc 1 91 9
	movq	-8(%rbp), %rax
	movq	%rax, %rsi
	leaq	.LC11(%rip), %rdi
	movl	$0, %eax
	call	printf@PLT
.L21:
	.loc 1 92 1
	leave
	.cfi_def_cfa 7, 8
	ret
	.cfi_endproc
.LFE14:
	.size	print_home, .-print_home
	.section	.rodata
.LC12:
	.string	"XDG_SESSION_DESKTOP"
.LC13:
	.string	"gnome"
.LC14:
	.string	"GNOME"
.LC15:
	.string	"gnome-xorg"
.LC16:
	.string	"GNOME on Xorg"
.LC17:
	.string	"xfce"
.LC18:
	.string	"Xfce"
.LC19:
	.string	"Desktop: %s\n"
	.text
	.globl	print_desktop
	.type	print_desktop, @function
print_desktop:
.LFB15:
	.loc 1 95 1
	.cfi_startproc
	pushq	%rbp
	.cfi_def_cfa_offset 16
	.cfi_offset 6, -16
	movq	%rsp, %rbp
	.cfi_def_cfa_register 6
	subq	$16, %rsp
	.loc 1 96 18
	leaq	.LC12(%rip), %rdi
	call	getenv@PLT
	movq	%rax, -8(%rbp)
	.loc 1 98 5
	cmpq	$0, -8(%rbp)
	jne	.L23
	.loc 1 102 10
	movl	$-1, %eax
	jmp	.L24
.L23:
	.loc 1 106 6
	movq	-8(%rbp), %rax
	leaq	.LC13(%rip), %rsi
	movq	%rax, %rdi
	call	strcmp@PLT
	.loc 1 106 5
	testl	%eax, %eax
	jne	.L25
	.loc 1 107 11
	leaq	.LC14(%rip), %rax
	movq	%rax, -8(%rbp)
.L25:
	.loc 1 108 6
	movq	-8(%rbp), %rax
	leaq	.LC15(%rip), %rsi
	movq	%rax, %rdi
	call	strcmp@PLT
	.loc 1 108 5
	testl	%eax, %eax
	jne	.L26
	.loc 1 109 11
	leaq	.LC16(%rip), %rax
	movq	%rax, -8(%rbp)
.L26:
	.loc 1 110 6
	movq	-8(%rbp), %rax
	leaq	.LC17(%rip), %rsi
	movq	%rax, %rdi
	call	strcmp@PLT
	.loc 1 110 5
	testl	%eax, %eax
	jne	.L27
	.loc 1 111 11
	leaq	.LC18(%rip), %rax
	movq	%rax, -8(%rbp)
.L27:
	.loc 1 114 9
	movq	-8(%rbp), %rax
	movq	%rax, %rsi
	leaq	.LC19(%rip), %rdi
	movl	$0, %eax
	call	printf@PLT
.L24:
	.loc 1 115 1
	leave
	.cfi_def_cfa 7, 8
	ret
	.cfi_endproc
.LFE15:
	.size	print_desktop, .-print_desktop
	.section	.rodata
.LC20:
	.string	"CWD:     %s\n"
	.text
	.globl	print_cwd
	.type	print_cwd, @function
print_cwd:
.LFB16:
	.loc 1 118 1
	.cfi_startproc
	pushq	%rbp
	.cfi_def_cfa_offset 16
	.cfi_offset 6, -16
	movq	%rsp, %rbp
	.cfi_def_cfa_register 6
	.loc 1 119 15
	movq	16+user_info(%rip), %rax
	.loc 1 119 5
	testq	%rax, %rax
	jne	.L29
	.loc 1 120 10
	movl	$-1, %eax
	jmp	.L30
.L29:
	.loc 1 121 9
	movq	16+user_info(%rip), %rax
	movq	%rax, %rsi
	leaq	.LC20(%rip), %rdi
	movl	$0, %eax
	call	printf@PLT
.L30:
	.loc 1 122 1
	popq	%rbp
	.cfi_def_cfa 7, 8
	ret
	.cfi_endproc
.LFE16:
	.size	print_cwd, .-print_cwd
	.globl	print_all
	.type	print_all, @function
print_all:
.LFB17:
	.loc 1 140 1
	.cfi_startproc
	pushq	%rbp
	.cfi_def_cfa_offset 16
	.cfi_offset 6, -16
	movq	%rsp, %rbp
	.cfi_def_cfa_register 6
	.loc 1 141 2
	movl	$0, %eax
	call	print_userinfo
	.loc 1 142 2
	movl	$0, %eax
	call	print_user
	.loc 1 143 2
	movl	$0, %eax
	call	print_os
	.loc 1 144 2
	movl	$0, %eax
	call	print_kernel
	.loc 1 145 2
	movl	$0, %eax
	call	print_arch
	.loc 1 147 31
	movq	system_info(%rip), %rax
	.loc 1 147 2
	movl	%eax, %edi
	call	print_full_uptime
	.loc 1 151 2
	movl	$0, %eax
	call	print_shell
	.loc 1 152 2
	movl	$0, %eax
	call	print_desktop
	.loc 1 153 2
	movl	$0, %eax
	call	print_home
	.loc 1 154 2
	movl	$0, %eax
	call	print_cwd
	.loc 1 156 9
	movl	$0, %eax
	.loc 1 157 1
	popq	%rbp
	.cfi_def_cfa 7, 8
	ret
	.cfi_endproc
.LFE17:
	.size	print_all, .-print_all
	.type	parse_opt, @function
parse_opt:
.LFB18:
	.loc 1 160 1
	.cfi_startproc
	pushq	%rbp
	.cfi_def_cfa_offset 16
	.cfi_offset 6, -16
	movq	%rsp, %rbp
	.cfi_def_cfa_register 6
	subq	$32, %rsp
	movl	%edi, -4(%rbp)
	movq	%rsi, -16(%rbp)
	movq	%rdx, -24(%rbp)
	movl	-4(%rbp), %eax
	subl	$65, %eax
	cmpl	$52, %eax
	ja	.L34
	movl	%eax, %eax
	leaq	0(,%rax,4), %rdx
	leaq	.L36(%rip), %rax
	movl	(%rdx,%rax), %eax
	cltq
	leaq	.L36(%rip), %rdx
	addq	%rdx, %rax
	jmp	*%rax
	.section	.rodata
	.align 4
	.align 4
.L36:
	.long	.L45-.L36
	.long	.L34-.L36
	.long	.L34-.L36
	.long	.L34-.L36
	.long	.L34-.L36
	.long	.L34-.L36
	.long	.L34-.L36
	.long	.L44-.L36
	.long	.L34-.L36
	.long	.L34-.L36
	.long	.L34-.L36
	.long	.L34-.L36
	.long	.L34-.L36
	.long	.L34-.L36
	.long	.L34-.L36
	.long	.L34-.L36
	.long	.L34-.L36
	.long	.L34-.L36
	.long	.L34-.L36
	.long	.L43-.L36
	.long	.L34-.L36
	.long	.L34-.L36
	.long	.L34-.L36
	.long	.L34-.L36
	.long	.L34-.L36
	.long	.L34-.L36
	.long	.L34-.L36
	.long	.L34-.L36
	.long	.L34-.L36
	.long	.L34-.L36
	.long	.L34-.L36
	.long	.L34-.L36
	.long	.L42-.L36
	.long	.L34-.L36
	.long	.L34-.L36
	.long	.L41-.L36
	.long	.L34-.L36
	.long	.L34-.L36
	.long	.L34-.L36
	.long	.L34-.L36
	.long	.L34-.L36
	.long	.L34-.L36
	.long	.L40-.L36
	.long	.L34-.L36
	.long	.L34-.L36
	.long	.L34-.L36
	.long	.L39-.L36
	.long	.L34-.L36
	.long	.L34-.L36
	.long	.L34-.L36
	.long	.L38-.L36
	.long	.L37-.L36
	.long	.L35-.L36
	.text
.L42:
	.loc 1 164 4
	movl	$0, %eax
	call	print_all
	.loc 1 165 4
	jmp	.L34
.L45:
	.loc 1 167 4
	movl	$0, %eax
	call	print_arch
	.loc 1 168 4
	jmp	.L34
.L41:
	.loc 1 170 4
	movl	$0, %eax
	call	print_desktop
	.loc 1 171 4
	jmp	.L34
.L44:
	.loc 1 173 4
	movl	$0, %eax
	call	print_home
	.loc 1 174 4
	jmp	.L34
.L40:
	.loc 1 176 4
	movl	$0, %eax
	call	print_kernel
	.loc 1 177 4
	jmp	.L34
.L39:
	.loc 1 179 4
	movl	$0, %eax
	call	print_os
	.loc 1 180 4
	jmp	.L34
.L38:
	.loc 1 182 4
	movl	$0, %eax
	call	print_shell
	.loc 1 183 4
	jmp	.L34
.L43:
	.loc 1 186 33
	movq	system_info(%rip), %rax
	.loc 1 186 4
	movl	%eax, %edi
	call	print_full_uptime
	.loc 1 187 4
	jmp	.L34
.L37:
	.loc 1 189 28
	movq	system_info(%rip), %rax
	.loc 1 189 4
	movl	%eax, %edi
	call	print_uptime
	.loc 1 190 4
	jmp	.L34
.L35:
	.loc 1 200 4
	movl	$0, %eax
	call	print_user
	.loc 1 201 4
	nop
.L34:
	.loc 1 204 9
	movl	$0, %eax
	.loc 1 205 1
	leave
	.cfi_def_cfa 7, 8
	ret
	.cfi_endproc
.LFE18:
	.size	parse_opt, .-parse_opt
	.globl	print_default
	.type	print_default, @function
print_default:
.LFB19:
	.loc 1 208 1
	.cfi_startproc
	pushq	%rbp
	.cfi_def_cfa_offset 16
	.cfi_offset 6, -16
	movq	%rsp, %rbp
	.cfi_def_cfa_register 6
	.loc 1 209 2
	movl	$0, %eax
	call	print_userinfo
	.loc 1 210 2
	movl	$0, %eax
	call	print_os
	.loc 1 211 2
	movl	$0, %eax
	call	print_kernel
	.loc 1 213 26
	movq	system_info(%rip), %rax
	.loc 1 213 2
	movl	%eax, %edi
	call	print_uptime
	.loc 1 217 2
	movl	$0, %eax
	call	print_shell
	.loc 1 219 9
	movl	$0, %eax
	.loc 1 220 1
	popq	%rbp
	.cfi_def_cfa 7, 8
	ret
	.cfi_endproc
.LFE19:
	.size	print_default, .-print_default
	.section	.rodata
.LC21:
	.string	"all"
.LC22:
	.string	"Print all"
.LC23:
	.string	"arch"
.LC24:
	.string	"View system architecture"
.LC25:
	.string	"desktop"
	.align 8
.LC26:
	.string	"View current user desktop environment"
.LC27:
	.string	"home"
.LC28:
	.string	"View current user home"
.LC29:
	.string	"kernel"
.LC30:
	.string	"View kernel info"
.LC31:
	.string	"os"
.LC32:
	.string	"View OS info"
.LC33:
	.string	"shell"
.LC34:
	.string	"View current user shell"
.LC35:
	.string	"full-uptime"
.LC36:
	.string	"View full system uptime"
.LC37:
	.string	"uptime"
.LC38:
	.string	"View system uptime"
.LC39:
	.string	"user"
.LC40:
	.string	"View current user info"
	.text
	.globl	main
	.type	main, @function
main:
.LFB20:
	.loc 1 223 1
	.cfi_startproc
	pushq	%rbp
	.cfi_def_cfa_offset 16
	.cfi_offset 6, -16
	movq	%rsp, %rbp
	.cfi_def_cfa_register 6
	subq	$624, %rsp
	movl	%edi, -612(%rbp)
	movq	%rsi, -624(%rbp)
	.loc 1 223 1
	movq	%fs:40, %rax
	movq	%rax, -8(%rbp)
	xorl	%eax, %eax
	.loc 1 224 2
	leaq	uname_info(%rip), %rdi
	call	uname@PLT
	.loc 1 225 2
	leaq	user_info(%rip), %rdi
	call	cimple_init@PLT
	.loc 1 228 2
	leaq	system_info(%rip), %rdi
	call	sysinfo@PLT
	.loc 1 231 5
	cmpl	$1, -612(%rbp)
	jne	.L50
	.loc 1 232 10
	movl	$0, %eax
	call	print_default
	jmp	.L52
.L50:
	.loc 1 234 21
	leaq	-544(%rbp), %rdx
	movl	$0, %eax
	movl	$66, %ecx
	movq	%rdx, %rdi
	rep stosq
	leaq	.LC21(%rip), %rax
	movq	%rax, -544(%rbp)
	movl	$97, -536(%rbp)
	leaq	.LC22(%rip), %rax
	movq	%rax, -512(%rbp)
	leaq	.LC23(%rip), %rax
	movq	%rax, -496(%rbp)
	movl	$65, -488(%rbp)
	leaq	.LC24(%rip), %rax
	movq	%rax, -464(%rbp)
	leaq	.LC25(%rip), %rax
	movq	%rax, -448(%rbp)
	movl	$100, -440(%rbp)
	leaq	.LC26(%rip), %rax
	movq	%rax, -416(%rbp)
	leaq	.LC27(%rip), %rax
	movq	%rax, -400(%rbp)
	movl	$72, -392(%rbp)
	leaq	.LC28(%rip), %rax
	movq	%rax, -368(%rbp)
	leaq	.LC29(%rip), %rax
	movq	%rax, -352(%rbp)
	movl	$107, -344(%rbp)
	leaq	.LC30(%rip), %rax
	movq	%rax, -320(%rbp)
	leaq	.LC31(%rip), %rax
	movq	%rax, -304(%rbp)
	movl	$111, -296(%rbp)
	leaq	.LC32(%rip), %rax
	movq	%rax, -272(%rbp)
	leaq	.LC33(%rip), %rax
	movq	%rax, -256(%rbp)
	movl	$115, -248(%rbp)
	leaq	.LC34(%rip), %rax
	movq	%rax, -224(%rbp)
	leaq	.LC35(%rip), %rax
	movq	%rax, -208(%rbp)
	movl	$84, -200(%rbp)
	leaq	.LC36(%rip), %rax
	movq	%rax, -176(%rbp)
	leaq	.LC37(%rip), %rax
	movq	%rax, -160(%rbp)
	movl	$116, -152(%rbp)
	leaq	.LC38(%rip), %rax
	movq	%rax, -128(%rbp)
	leaq	.LC39(%rip), %rax
	movq	%rax, -112(%rbp)
	movl	$117, -104(%rbp)
	leaq	.LC40(%rip), %rax
	movq	%rax, -80(%rbp)
	.loc 1 249 14
	movq	$0, -608(%rbp)
	movq	$0, -600(%rbp)
	movq	$0, -592(%rbp)
	movq	$0, -584(%rbp)
	movq	$0, -576(%rbp)
	movq	$0, -568(%rbp)
	movq	$0, -560(%rbp)
	leaq	-544(%rbp), %rax
	movq	%rax, -608(%rbp)
	leaq	parse_opt(%rip), %rax
	movq	%rax, -600(%rbp)
	.loc 1 251 9
	movq	-624(%rbp), %rdx
	movl	-612(%rbp), %esi
	leaq	-608(%rbp), %rax
	movl	$0, %r9d
	movl	$0, %r8d
	movl	$0, %ecx
	movq	%rax, %rdi
	call	argp_parse@PLT
.L52:
	.loc 1 252 1 discriminator 1
	movq	-8(%rbp), %rcx
	subq	%fs:40, %rcx
	je	.L53
	.loc 1 252 1 is_stmt 0
	call	__stack_chk_fail@PLT
.L53:
	leave
	.cfi_def_cfa 7, 8
	ret
	.cfi_endproc
.LFE20:
	.size	main, .-main
.Letext0:
	.file 2 "/usr/lib/gcc/x86_64-pc-linux-gnu/10.2.0/include/stddef.h"
	.file 3 "/usr/include/bits/types.h"
	.file 4 "/usr/include/bits/types/struct_FILE.h"
	.file 5 "/usr/include/bits/types/FILE.h"
	.file 6 "/usr/include/argp.h"
	.file 7 "/usr/include/libcimply.h"
	.file 8 "/usr/include/sys/utsname.h"
	.file 9 "/usr/include/asm-generic/int-ll64.h"
	.file 10 "/usr/include/asm-generic/posix_types.h"
	.file 11 "/usr/include/linux/sysinfo.h"
	.section	.note.GNU-stack,"",@progbits
